target datalayout = "e-m:e-p270:32:32-p271:32:32-p272:64:64-i64:64-i128:128-f80:128-n8:16:32:64-S128"
target triple = "x86_64-pc-linux-gnu"

%struct.AVFormatContext = type { ptr, ptr, ptr, ptr, ptr, i32, i32, ptr, i32, ptr, i32, ptr, ptr, i64, i64, i64, i32, i32, i32, i64, i64, ptr, i32, i32, ptr, i32, i32, i32, i32, ptr, i64, i32, i32, %struct.AVIOInterruptCB, i32, i32, i32, i32, i64, i32, i32, i32, i32, i32, i32, i32, i32, i32, i32, i32, i32, i64, i32, i32, i32, i32, i32, ptr, ptr, ptr, ptr, i32, ptr, ptr, ptr, ptr, i32, ptr, ptr, i64, ptr, ptr, ptr, i64 }
%struct.AVIOInterruptCB = type { ptr, ptr }
%struct.RTSPState = type { ptr, ptr, i32, ptr, i32, i64, i32, [512 x i8], i32, i64, i32, i32, i32, [64 x i8], [128 x i8], %struct.HTTPAuthState, [2048 x i8], ptr, i32, ptr, ptr, [1024 x i8], ptr, i64, [4096 x i8], ptr, i32, i32, ptr, i32, i32, ptr, i32, i64, ptr, i32, i32, i32, i32, i32, i32, i32, i32, i32, i32, i64, i32, ptr, [4 x i8], i32, i32, ptr }
%struct.HTTPAuthState = type { i32, [200 x i8], %struct.DigestParams, i32 }
%struct.DigestParams = type { [300 x i8], [10 x i8], [30 x i8], [300 x i8], [10 x i8], i32 }

@.str.97 = private unnamed_addr constant [11 x i8] c"CSeq: %d\0D\0A\00", align 1
@.str.98 = private unnamed_addr constant [14 x i8] c"Session: %s\0D\0A\00", align 1
@.str.100 = private unnamed_addr constant [3 x i8] c"\0D\0A\00", align 1
@.str.210 = private unnamed_addr constant [17 x i8] c"%s %s RTSP/1.0\0D\0A\00", align 1
@.str.211 = private unnamed_addr constant [17 x i8] c"User-Agent: %s\0D\0A\00", align 1
@.str.212 = private unnamed_addr constant [11 x i8] c"\0AIf-Match:\00", align 1
@.str.213 = private unnamed_addr constant [21 x i8] c"Content-Length: %d\0D\0A\00", align 1
@.str.214 = private unnamed_addr constant [15 x i8] c"Sending:\0A%s--\0A\00", align 1
@.str.215 = private unnamed_addr constant [45 x i8] c"Tunneling of RTSP requests with content data\00", align 1

; Function Attrs: inlinehint nounwind uwtable
define internal i32 @ffurl_write(ptr noundef %0, ptr noundef %1, i32 noundef %2) #9 {
  %4 = alloca ptr, align 8
  %5 = alloca ptr, align 8
  %6 = alloca i32, align 4
  store ptr %0, ptr %4, align 8, !tbaa !171
  store ptr %1, ptr %5, align 8, !tbaa !10
  store i32 %2, ptr %6, align 4, !tbaa !12
  %7 = load ptr, ptr %4, align 8, !tbaa !171
  %8 = load ptr, ptr %5, align 8, !tbaa !10
  %9 = load i32, ptr %6, align 4, !tbaa !12
  %10 = call i32 @ffurl_write2(ptr noundef %7, ptr noundef %8, i32 noundef %9)
  ret i32 %10
}

; Function Attrs: nounwind uwtable
define internal i32 @rtsp_send_cmd_with_content_async(ptr noundef %0, ptr noundef %1, ptr noundef %2, ptr noundef %3, ptr noundef %4, i32 noundef %5) #0 {
  %7 = alloca i32, align 4
  %8 = alloca ptr, align 8
  %9 = alloca ptr, align 8
  %10 = alloca ptr, align 8
  %11 = alloca ptr, align 8
  %12 = alloca ptr, align 8
  %13 = alloca i32, align 4
  %14 = alloca ptr, align 8
  %15 = alloca [4096 x i8], align 16
  %16 = alloca ptr, align 8
  %17 = alloca [5465 x i8], align 16
  %18 = alloca i32, align 4
  %19 = alloca ptr, align 8
  store ptr %0, ptr %8, align 8, !tbaa !15
  store ptr %1, ptr %9, align 8, !tbaa !10
  store ptr %2, ptr %10, align 8, !tbaa !10
  store ptr %3, ptr %11, align 8, !tbaa !10
  store ptr %4, ptr %12, align 8, !tbaa !10
  store i32 %5, ptr %13, align 4, !tbaa !12
  call void @llvm.lifetime.start.p0(i64 8, ptr %14) #13
  %20 = load ptr, ptr %8, align 8, !tbaa !15
  %21 = getelementptr inbounds nuw %struct.AVFormatContext, ptr %20, i32 0, i32 3
  %22 = load ptr, ptr %21, align 8, !tbaa !33
  store ptr %22, ptr %14, align 8, !tbaa !46
  call void @llvm.lifetime.start.p0(i64 4096, ptr %15) #13
  call void @llvm.lifetime.start.p0(i64 8, ptr %16) #13
  call void @llvm.lifetime.start.p0(i64 5465, ptr %17) #13
  %23 = load ptr, ptr %14, align 8, !tbaa !46
  %24 = getelementptr inbounds nuw %struct.RTSPState, ptr %23, i32 0, i32 28
  %25 = load ptr, ptr %24, align 8, !tbaa !167
  %26 = icmp ne ptr %25, null
  br i1 %26, label %28, label %27

27:                                               ; preds = %6
  store i32 -107, ptr %7, align 4
  store i32 1, ptr %18, align 4
  br label %156

28:                                               ; preds = %6
  %29 = getelementptr inbounds [4096 x i8], ptr %15, i64 0, i64 0
  store ptr %29, ptr %16, align 8, !tbaa !10
  %30 = load ptr, ptr %14, align 8, !tbaa !46
  %31 = getelementptr inbounds nuw %struct.RTSPState, ptr %30, i32 0, i32 6
  %32 = load i32, ptr %31, align 8, !tbaa !169
  %33 = add nsw i32 %32, 1
  store i32 %33, ptr %31, align 8, !tbaa !169
  %34 = getelementptr inbounds [4096 x i8], ptr %15, i64 0, i64 0
  %35 = load ptr, ptr %9, align 8, !tbaa !10
  %36 = load ptr, ptr %10, align 8, !tbaa !10
  %37 = call i32 (ptr, i64, ptr, ...) @snprintf(ptr noundef %34, i64 noundef 4096, ptr noundef @.str.210, ptr noundef %35, ptr noundef %36) #13
  %38 = load ptr, ptr %11, align 8, !tbaa !10
  %39 = icmp ne ptr %38, null
  br i1 %39, label %40, label %44

40:                                               ; preds = %28
  %41 = getelementptr inbounds [4096 x i8], ptr %15, i64 0, i64 0
  %42 = load ptr, ptr %11, align 8, !tbaa !10
  %43 = call i64 @av_strlcat(ptr noundef %41, ptr noundef %42, i64 noundef 4096)
  br label %44

44:                                               ; preds = %40, %28
  %45 = getelementptr inbounds [4096 x i8], ptr %15, i64 0, i64 0
  %46 = load ptr, ptr %14, align 8, !tbaa !46
  %47 = getelementptr inbounds nuw %struct.RTSPState, ptr %46, i32 0, i32 6
  %48 = load i32, ptr %47, align 8, !tbaa !169
  %49 = call i64 (ptr, i64, ptr, ...) @av_strlcatf(ptr noundef %45, i64 noundef 4096, ptr noundef @.str.97, i32 noundef %48)
  %50 = getelementptr inbounds [4096 x i8], ptr %15, i64 0, i64 0
  %51 = load ptr, ptr %14, align 8, !tbaa !46
  %52 = getelementptr inbounds nuw %struct.RTSPState, ptr %51, i32 0, i32 47
  %53 = load ptr, ptr %52, align 8, !tbaa !172
  %54 = call i64 (ptr, i64, ptr, ...) @av_strlcatf(ptr noundef %50, i64 noundef 4096, ptr noundef @.str.211, ptr noundef %53)
  %55 = load ptr, ptr %14, align 8, !tbaa !46
  %56 = getelementptr inbounds nuw %struct.RTSPState, ptr %55, i32 0, i32 7
  %57 = getelementptr inbounds [512 x i8], ptr %56, i64 0, i64 0
  %58 = load i8, ptr %57, align 4, !tbaa !14
  %59 = sext i8 %58 to i32
  %60 = icmp ne i32 %59, 0
  br i1 %60, label %61, label %74

61:                                               ; preds = %44
  %62 = load ptr, ptr %11, align 8, !tbaa !10
  %63 = icmp ne ptr %62, null
  br i1 %63, label %64, label %68

64:                                               ; preds = %61
  %65 = load ptr, ptr %11, align 8, !tbaa !10
  %66 = call ptr @strstr(ptr noundef %65, ptr noundef @.str.212) #12
  %67 = icmp ne ptr %66, null
  br i1 %67, label %74, label %68

68:                                               ; preds = %64, %61
  %69 = getelementptr inbounds [4096 x i8], ptr %15, i64 0, i64 0
  %70 = load ptr, ptr %14, align 8, !tbaa !46
  %71 = getelementptr inbounds nuw %struct.RTSPState, ptr %70, i32 0, i32 7
  %72 = getelementptr inbounds [512 x i8], ptr %71, i64 0, i64 0
  %73 = call i64 (ptr, i64, ptr, ...) @av_strlcatf(ptr noundef %69, i64 noundef 4096, ptr noundef @.str.98, ptr noundef %72)
  br label %74

74:                                               ; preds = %68, %64, %44
  %75 = load ptr, ptr %14, align 8, !tbaa !46
  %76 = getelementptr inbounds nuw %struct.RTSPState, ptr %75, i32 0, i32 14
  %77 = getelementptr inbounds [128 x i8], ptr %76, i64 0, i64 0
  %78 = load i8, ptr %77, align 4, !tbaa !14
  %79 = icmp ne i8 %78, 0
  br i1 %79, label %80, label %97

80:                                               ; preds = %74
  call void @llvm.lifetime.start.p0(i64 8, ptr %19) #13
  %81 = load ptr, ptr %14, align 8, !tbaa !46
  %82 = getelementptr inbounds nuw %struct.RTSPState, ptr %81, i32 0, i32 15
  %83 = load ptr, ptr %14, align 8, !tbaa !46
  %84 = getelementptr inbounds nuw %struct.RTSPState, ptr %83, i32 0, i32 14
  %85 = getelementptr inbounds [128 x i8], ptr %84, i64 0, i64 0
  %86 = load ptr, ptr %10, align 8, !tbaa !10
  %87 = load ptr, ptr %9, align 8, !tbaa !10
  %88 = call ptr @ff_http_auth_create_response(ptr noundef %82, ptr noundef %85, ptr noundef %86, ptr noundef %87)
  store ptr %88, ptr %19, align 8, !tbaa !10
  %89 = load ptr, ptr %19, align 8, !tbaa !10
  %90 = icmp ne ptr %89, null
  br i1 %90, label %91, label %95

91:                                               ; preds = %80
  %92 = getelementptr inbounds [4096 x i8], ptr %15, i64 0, i64 0
  %93 = load ptr, ptr %19, align 8, !tbaa !10
  %94 = call i64 @av_strlcat(ptr noundef %92, ptr noundef %93, i64 noundef 4096)
  br label %95

95:                                               ; preds = %91, %80
  %96 = load ptr, ptr %19, align 8, !tbaa !10
  call void @av_free(ptr noundef %96)
  call void @llvm.lifetime.end.p0(i64 8, ptr %19) #13
  br label %97

97:                                               ; preds = %95, %74
  %98 = load i32, ptr %13, align 4, !tbaa !12
  %99 = icmp sgt i32 %98, 0
  br i1 %99, label %100, label %107

100:                                              ; preds = %97
  %101 = load ptr, ptr %12, align 8, !tbaa !10
  %102 = icmp ne ptr %101, null
  br i1 %102, label %103, label %107

103:                                              ; preds = %100
  %104 = getelementptr inbounds [4096 x i8], ptr %15, i64 0, i64 0
  %105 = load i32, ptr %13, align 4, !tbaa !12
  %106 = call i64 (ptr, i64, ptr, ...) @av_strlcatf(ptr noundef %104, i64 noundef 4096, ptr noundef @.str.213, i32 noundef %105)
  br label %107

107:                                              ; preds = %103, %100, %97
  %108 = getelementptr inbounds [4096 x i8], ptr %15, i64 0, i64 0
  %109 = call i64 @av_strlcat(ptr noundef %108, ptr noundef @.str.100, i64 noundef 4096)
  %110 = load ptr, ptr %14, align 8, !tbaa !46
  %111 = getelementptr inbounds nuw %struct.RTSPState, ptr %110, i32 0, i32 29
  %112 = load i32, ptr %111, align 8, !tbaa !166
  %113 = icmp eq i32 %112, 1
  br i1 %113, label %114, label %122

114:                                              ; preds = %107
  %115 = getelementptr inbounds [5465 x i8], ptr %17, i64 0, i64 0
  %116 = getelementptr inbounds [4096 x i8], ptr %15, i64 0, i64 0
  %117 = getelementptr inbounds [4096 x i8], ptr %15, i64 0, i64 0
  %118 = call i64 @strlen(ptr noundef %117) #12
  %119 = trunc i64 %118 to i32
  %120 = call ptr @av_base64_encode(ptr noundef %115, i32 noundef 5465, ptr noundef %116, i32 noundef %119)
  %121 = getelementptr inbounds [5465 x i8], ptr %17, i64 0, i64 0
  store ptr %121, ptr %16, align 8, !tbaa !10
  br label %122

122:                                              ; preds = %114, %107
  %123 = load ptr, ptr %8, align 8, !tbaa !15
  %124 = getelementptr inbounds [4096 x i8], ptr %15, i64 0, i64 0
  call void (ptr, i32, ptr, ...) @av_log(ptr noundef %123, i32 noundef 56, ptr noundef @.str.214, ptr noundef %124)
  %125 = load ptr, ptr %14, align 8, !tbaa !46
  %126 = getelementptr inbounds nuw %struct.RTSPState, ptr %125, i32 0, i32 28
  %127 = load ptr, ptr %126, align 8, !tbaa !167
  %128 = load ptr, ptr %16, align 8, !tbaa !10
  %129 = load ptr, ptr %16, align 8, !tbaa !10
  %130 = call i64 @strlen(ptr noundef %129) #12
  %131 = trunc i64 %130 to i32
  %132 = call i32 @ffurl_write(ptr noundef %127, ptr noundef %128, i32 noundef %131)
  %133 = load i32, ptr %13, align 4, !tbaa !12
  %134 = icmp sgt i32 %133, 0
  br i1 %134, label %135, label %152

135:                                              ; preds = %122
  %136 = load ptr, ptr %12, align 8, !tbaa !10
  %137 = icmp ne ptr %136, null
  br i1 %137, label %138, label %152

138:                                              ; preds = %135
  %139 = load ptr, ptr %14, align 8, !tbaa !46
  %140 = getelementptr inbounds nuw %struct.RTSPState, ptr %139, i32 0, i32 29
  %141 = load i32, ptr %140, align 8, !tbaa !166
  %142 = icmp eq i32 %141, 1
  br i1 %142, label %143, label %145

143:                                              ; preds = %138
  %144 = load ptr, ptr %8, align 8, !tbaa !15
  call void (ptr, ptr, ...) @avpriv_report_missing_feature(ptr noundef %144, ptr noundef @.str.215)
  store i32 -1163346256, ptr %7, align 4
  store i32 1, ptr %18, align 4
  br label %156

145:                                              ; preds = %138
  %146 = load ptr, ptr %14, align 8, !tbaa !46
  %147 = getelementptr inbounds nuw %struct.RTSPState, ptr %146, i32 0, i32 28
  %148 = load ptr, ptr %147, align 8, !tbaa !167
  %149 = load ptr, ptr %12, align 8, !tbaa !10
  %150 = load i32, ptr %13, align 4, !tbaa !12
  %151 = call i32 @ffurl_write(ptr noundef %148, ptr noundef %149, i32 noundef %150)
  br label %152

152:                                              ; preds = %145, %135, %122
  %153 = call i64 @av_gettime_relative()
  %154 = load ptr, ptr %14, align 8, !tbaa !46
  %155 = getelementptr inbounds nuw %struct.RTSPState, ptr %154, i32 0, i32 9
  store i64 %153, ptr %155, align 8, !tbaa !168
  store i32 0, ptr %7, align 4
  store i32 1, ptr %18, align 4
  br label %156

156:                                              ; preds = %152, %143, %27
  call void @llvm.lifetime.end.p0(i64 5465, ptr %17) #13
  call void @llvm.lifetime.end.p0(i64 8, ptr %16) #13
  call void @llvm.lifetime.end.p0(i64 4096, ptr %15) #13
  call void @llvm.lifetime.end.p0(i64 8, ptr %14) #13
  %157 = load i32, ptr %7, align 4
  ret i32 %157
}