; Function Attrs: nounwind uwtable
define internal fastcc range(i32 -1163346256, 1) i32 @rtsp_send_cmd_with_content_async(ptr noundef %0, ptr noundef %1, ptr noundef %2, ptr noundef %3, ptr noundef %4, i32 noundef %5) unnamed_addr #2 {
  %7 = alloca [4096 x i8], align 16
  %8 = alloca [5465 x i8], align 16
  %9 = getelementptr inbounds nuw i8, ptr %0, i64 24
  %10 = load ptr, ptr %9, align 8, !tbaa !20
  call void @llvm.lifetime.start.p0(i64 4096, ptr nonnull %7) #15
  call void @llvm.lifetime.start.p0(i64 5465, ptr nonnull %8) #15
  %11 = getelementptr inbounds nuw i8, ptr %10, i64 8880
  %12 = load ptr, ptr %11, align 8, !tbaa !180
  %.not = icmp eq ptr %12, null
  br i1 %.not, label %71, label %13

13:                                               ; preds = %6
  %14 = getelementptr inbounds nuw i8, ptr %10, i64 48
  %15 = load i32, ptr %14, align 8, !tbaa !182
  %16 = add nsw i32 %15, 1
  store i32 %16, ptr %14, align 8, !tbaa !182
  %17 = call i32 (ptr, i64, ptr, ...) @snprintf(ptr noundef nonnull dereferenceable(1) %7, i64 noundef 4096, ptr noundef nonnull @.str.210, ptr noundef %1, ptr noundef %2) #15
  %.not46 = icmp eq ptr %3, null
  br i1 %.not46, label %20, label %18

18:                                               ; preds = %13
  %19 = call i64 @av_strlcat(ptr noundef nonnull %7, ptr noundef nonnull %3, i64 noundef 4096) #15
  br label %20

20:                                               ; preds = %18, %13
  %21 = load i32, ptr %14, align 8, !tbaa !182
  %22 = call i64 (ptr, i64, ptr, ...) @av_strlcatf(ptr noundef nonnull %7, i64 noundef 4096, ptr noundef nonnull @.str.97, i32 noundef %21) #15
  %23 = getelementptr inbounds nuw i8, ptr %10, i64 8984
  %24 = load ptr, ptr %23, align 8, !tbaa !184
  %25 = call i64 (ptr, i64, ptr, ...) @av_strlcatf(ptr noundef nonnull %7, i64 noundef 4096, ptr noundef nonnull @.str.211, ptr noundef %24) #15
  %26 = getelementptr inbounds nuw i8, ptr %10, i64 52
  %27 = load i8, ptr %26, align 4, !tbaa !9
  %.not47 = icmp eq i8 %27, 0
  br i1 %.not47, label %33, label %28

28:                                               ; preds = %20
  br i1 %.not46, label %31, label %29

29:                                               ; preds = %28
  %30 = call ptr @strstr(ptr noundef nonnull dereferenceable(1) %3, ptr noundef nonnull dereferenceable(1) @.str.212) #14
  %.not48 = icmp eq ptr %30, null
  br i1 %.not48, label %31, label %33

31:                                               ; preds = %29, %28
  %32 = call i64 (ptr, i64, ptr, ...) @av_strlcatf(ptr noundef nonnull %7, i64 noundef 4096, ptr noundef nonnull @.str.98, ptr noundef nonnull %26) #15
  br label %33

33:                                               ; preds = %31, %29, %20
  %34 = getelementptr inbounds nuw i8, ptr %10, i64 652
  %35 = load i8, ptr %34, align 4, !tbaa !9
  %.not49 = icmp eq i8 %35, 0
  br i1 %.not49, label %42, label %36

36:                                               ; preds = %33
  %37 = getelementptr inbounds nuw i8, ptr %10, i64 780
  %38 = call ptr @ff_http_auth_create_response(ptr noundef nonnull %37, ptr noundef nonnull %34, ptr noundef %2, ptr noundef %1) #15
  %.not50 = icmp eq ptr %38, null
  br i1 %.not50, label %41, label %39

39:                                               ; preds = %36
  %40 = call i64 @av_strlcat(ptr noundef nonnull %7, ptr noundef nonnull %38, i64 noundef 4096) #15
  br label %41

41:                                               ; preds = %39, %36
  call void @av_free(ptr noundef %38) #15
  br label %42

42:                                               ; preds = %41, %33
  %43 = icmp sgt i32 %5, 0
  %44 = icmp ne ptr %4, null
  %or.cond = and i1 %44, %43
  br i1 %or.cond, label %45, label %47

45:                                               ; preds = %42
  %46 = call i64 (ptr, i64, ptr, ...) @av_strlcatf(ptr noundef nonnull %7, i64 noundef 4096, ptr noundef nonnull @.str.213, i32 noundef %5) #15
  br label %47

47:                                               ; preds = %45, %42
  %48 = call i64 @av_strlcat(ptr noundef nonnull %7, ptr noundef nonnull @.str.100, i64 noundef 4096) #15
  %49 = getelementptr inbounds nuw i8, ptr %10, i64 8888
  %50 = load i32, ptr %49, align 8, !tbaa !179
  %51 = icmp eq i32 %50, 1
  br i1 %51, label %52, label %56

52:                                               ; preds = %47
  %53 = call i64 @strlen(ptr noundef nonnull dereferenceable(1) %7) #14
  %54 = trunc i64 %53 to i32
  %55 = call ptr @av_base64_encode(ptr noundef nonnull %8, i32 noundef 5465, ptr noundef nonnull %7, i32 noundef %54) #15
  br label %56

56:                                               ; preds = %52, %47
  %.040 = phi ptr [ %8, %52 ], [ %7, %47 ]
  call void (ptr, i32, ptr, ...) @av_log(ptr noundef nonnull %0, i32 noundef 56, ptr noundef nonnull @.str.214, ptr noundef nonnull %7) #15
  %57 = load ptr, ptr %11, align 8, !tbaa !180
  %58 = call i64 @strlen(ptr noundef nonnull dereferenceable(1) %.040) #14
  %59 = trunc i64 %58 to i32
  %60 = call i32 @ffurl_write2(ptr noundef %57, ptr noundef nonnull %.040, i32 noundef %59) #15
  br i1 %or.cond, label %61, label %68

61:                                               ; preds = %56
  %62 = load i32, ptr %49, align 8, !tbaa !179
  %63 = icmp eq i32 %62, 1
  br i1 %63, label %64, label %65

64:                                               ; preds = %61
  call void (ptr, ptr, ...) @avpriv_report_missing_feature(ptr noundef nonnull %0, ptr noundef nonnull @.str.215) #15
  br label %71

65:                                               ; preds = %61
  %66 = load ptr, ptr %11, align 8, !tbaa !180
  %67 = call i32 @ffurl_write2(ptr noundef %66, ptr noundef nonnull %4, i32 noundef %5) #15
  br label %68

68:                                               ; preds = %65, %56
  %69 = call i64 @av_gettime_relative() #15
  %70 = getelementptr inbounds nuw i8, ptr %10, i64 568
  store i64 %69, ptr %70, align 8, !tbaa !181
  br label %71

71:                                               ; preds = %6, %68, %64
  %.0 = phi i32 [ -1163346256, %64 ], [ 0, %68 ], [ -107, %6 ]
  call void @llvm.lifetime.end.p0(i64 5465, ptr nonnull %8) #15
  call void @llvm.lifetime.end.p0(i64 4096, ptr nonnull %7) #15
  ret i32 %.0
}